target datalayout = "e-m:e-p270:32:32-p271:32:32-p272:64:64-i64:64-i128:128-f80:128-n8:16:32:64-S128"
target triple = "x86_64-pc-linux-gnu"

%struct.asn1_object_st = type { ptr, ptr, i32, i32, ptr, i32 }

@.str.1 = private unnamed_addr constant [5 x i8] c"NULL\00", align 1
@.str.2 = private unnamed_addr constant [10 x i8] c"<INVALID>\00", align 1

; Function Attrs: nounwind uwtable
define hidden i32 @i2t_ASN1_OBJECT(ptr noundef %0, i32 noundef %1, ptr noundef %2) #0 {
  %4 = alloca ptr, align 8
  %5 = alloca i32, align 4
  %6 = alloca ptr, align 8
  store ptr %0, ptr %4, align 8, !tbaa !19
  store i32 %1, ptr %5, align 4, !tbaa !18
  store ptr %2, ptr %6, align 8, !tbaa !6
  %7 = load ptr, ptr %4, align 8, !tbaa !19
  %8 = load i32, ptr %5, align 4, !tbaa !18
  %9 = load ptr, ptr %6, align 8, !tbaa !6
  %10 = call i32 @OBJ_obj2txt(ptr noundef %7, i32 noundef %8, ptr noundef %9, i32 noundef 0)
  ret i32 %10
}

; Function Attrs: nounwind uwtable
define hidden i32 @i2a_ASN1_OBJECT(ptr noundef %0, ptr noundef %1) #0 {
  %3 = alloca i32, align 4
  %4 = alloca ptr, align 8
  %5 = alloca ptr, align 8
  %6 = alloca [80 x i8], align 16
  %7 = alloca ptr, align 8
  %8 = alloca i32, align 4
  %9 = alloca i32, align 4
  store ptr %0, ptr %4, align 8, !tbaa !28
  store ptr %1, ptr %5, align 8, !tbaa !6
  call void @llvm.lifetime.start.p0(i64 80, ptr %6) #7
  call void @llvm.lifetime.start.p0(i64 8, ptr %7) #7
  %10 = getelementptr inbounds [80 x i8], ptr %6, i64 0, i64 0
  store ptr %10, ptr %7, align 8, !tbaa !19
  call void @llvm.lifetime.start.p0(i64 4, ptr %8) #7
  %11 = load ptr, ptr %5, align 8, !tbaa !6
  %12 = icmp eq ptr %11, null
  br i1 %12, label %18, label %13

13:                                               ; preds = %2
  %14 = load ptr, ptr %5, align 8, !tbaa !6
  %15 = getelementptr inbounds nuw %struct.asn1_object_st, ptr %14, i32 0, i32 4
  %16 = load ptr, ptr %15, align 8, !tbaa !13
  %17 = icmp eq ptr %16, null
  br i1 %17, label %18, label %21

18:                                               ; preds = %13, %2
  %19 = load ptr, ptr %4, align 8, !tbaa !28
  %20 = call i32 @BIO_write(ptr noundef %19, ptr noundef @.str.1, i32 noundef 4)
  store i32 %20, ptr %3, align 4
  store i32 1, ptr %9, align 4
  br label %59

21:                                               ; preds = %13
  %22 = getelementptr inbounds [80 x i8], ptr %6, i64 0, i64 0
  %23 = load ptr, ptr %5, align 8, !tbaa !6
  %24 = call i32 @i2t_ASN1_OBJECT(ptr noundef %22, i32 noundef 80, ptr noundef %23)
  store i32 %24, ptr %8, align 4, !tbaa !18
  %25 = load i32, ptr %8, align 4, !tbaa !18
  %26 = icmp sgt i32 %25, 79
  br i1 %26, label %27, label %41

27:                                               ; preds = %21
  %28 = load i32, ptr %8, align 4, !tbaa !18
  %29 = add nsw i32 %28, 1
  %30 = sext i32 %29 to i64
  %31 = call noalias ptr @malloc(i64 noundef %30) #9
  store ptr %31, ptr %7, align 8, !tbaa !19
  %32 = load ptr, ptr %7, align 8, !tbaa !19
  %33 = icmp ne ptr %32, null
  br i1 %33, label %35, label %34

34:                                               ; preds = %27
  store i32 -1, ptr %3, align 4
  store i32 1, ptr %9, align 4
  br label %59

35:                                               ; preds = %27
  %36 = load ptr, ptr %7, align 8, !tbaa !19
  %37 = load i32, ptr %8, align 4, !tbaa !18
  %38 = add nsw i32 %37, 1
  %39 = load ptr, ptr %5, align 8, !tbaa !6
  %40 = call i32 @i2t_ASN1_OBJECT(ptr noundef %36, i32 noundef %38, ptr noundef %39)
  br label %41

41:                                               ; preds = %35, %21
  %42 = load i32, ptr %8, align 4, !tbaa !18
  %43 = icmp sle i32 %42, 0
  br i1 %43, label %44, label %47

44:                                               ; preds = %41
  %45 = load ptr, ptr %4, align 8, !tbaa !28
  %46 = call i32 @BIO_write(ptr noundef %45, ptr noundef @.str.2, i32 noundef 9)
  store i32 %46, ptr %3, align 4
  store i32 1, ptr %9, align 4
  br label %59

47:                                               ; preds = %41
  %48 = load ptr, ptr %4, align 8, !tbaa !28
  %49 = load ptr, ptr %7, align 8, !tbaa !19
  %50 = load i32, ptr %8, align 4, !tbaa !18
  %51 = call i32 @BIO_write(ptr noundef %48, ptr noundef %49, i32 noundef %50)
  %52 = load ptr, ptr %7, align 8, !tbaa !19
  %53 = getelementptr inbounds [80 x i8], ptr %6, i64 0, i64 0
  %54 = icmp ne ptr %52, %53
  br i1 %54, label %55, label %57

55:                                               ; preds = %47
  %56 = load ptr, ptr %7, align 8, !tbaa !19
  call void @free(ptr noundef %56) #7
  br label %57

57:                                               ; preds = %55, %47
  %58 = load i32, ptr %8, align 4, !tbaa !18
  store i32 %58, ptr %3, align 4
  store i32 1, ptr %9, align 4
  br label %59

59:                                               ; preds = %57, %44, %34, %18
  call void @llvm.lifetime.end.p0(i64 4, ptr %8) #7
  call void @llvm.lifetime.end.p0(i64 8, ptr %7) #7
  call void @llvm.lifetime.end.p0(i64 80, ptr %6) #7
  %60 = load i32, ptr %3, align 4
  ret i32 %60
}