; Function Attrs: nounwind uwtable
define hidden i32 @i2a_ASN1_OBJECT(ptr noundef %0, ptr noundef %1) local_unnamed_addr #0 {
  %3 = alloca [80 x i8], align 16
  call void @llvm.lifetime.start.p0(i64 80, ptr nonnull %3) #9
  %4 = icmp eq ptr %1, null
  br i1 %4, label %9, label %5

5:                                                ; preds = %2
  %6 = getelementptr inbounds nuw i8, ptr %1, i64 24
  %7 = load ptr, ptr %6, align 8, !tbaa !6
  %8 = icmp eq ptr %7, null
  br i1 %8, label %9, label %11

9:                                                ; preds = %5, %2
  %10 = tail call i32 @BIO_write(ptr noundef %0, ptr noundef nonnull @.str.1, i32 noundef 4) #9
  br label %26

11:                                               ; preds = %5
  %12 = call i32 @OBJ_obj2txt(ptr noundef nonnull %3, i32 noundef 80, ptr noundef nonnull %1, i32 noundef 0) #9
  %13 = icmp sgt i32 %12, 79
  br i1 %13, label %14, label %18

14:                                               ; preds = %11
  %15 = add nuw nsw i32 %12, 1
  %16 = zext nneg i32 %15 to i64
  %17 = call noalias ptr @malloc(i64 noundef %16) #11
  %.not = icmp eq ptr %17, null
  br i1 %.not, label %26, label %23

18:                                               ; preds = %11
  %19 = icmp slt i32 %12, 1
  br i1 %19, label %21, label %.thread25

.thread25:                                        ; preds = %18
  %20 = call i32 @BIO_write(ptr noundef %0, ptr noundef nonnull %3, i32 noundef %12) #9
  br label %26

21:                                               ; preds = %18
  %22 = call i32 @BIO_write(ptr noundef %0, ptr noundef nonnull @.str.2, i32 noundef 9) #9
  br label %26

23:                                               ; preds = %14
  %24 = call i32 @OBJ_obj2txt(ptr noundef nonnull %17, i32 noundef %15, ptr noundef nonnull %1, i32 noundef 0) #9
  %25 = call i32 @BIO_write(ptr noundef %0, ptr noundef nonnull %17, i32 noundef %12) #9
  call void @free(ptr noundef nonnull %17) #9
  br label %26

26:                                               ; preds = %.thread25, %23, %14, %21, %9
  %.0 = phi i32 [ %10, %9 ], [ %22, %21 ], [ -1, %14 ], [ %12, %23 ], [ %12, %.thread25 ]
  call void @llvm.lifetime.end.p0(i64 80, ptr nonnull %3) #9
  ret i32 %.0
}